(dp1
S'beagle'
p2
(lp3
ccopy_reg
_reconstructor
p4
(cpandas.core.frame
DataFrame
p5
c__builtin__
object
p6
NtRp7
(dp8
S'_metadata'
p9
(lp10
sS'_typ'
p11
S'dataframe'
p12
sS'_data'
p13
g4
(cpandas.core.internals
BlockManager
p14
g6
NtRp15
((lp16
cpandas.indexes.base
_new_Index
p17
(cpandas.indexes.base
Index
p18
(dp19
S'data'
p20
cnumpy.core.multiarray
_reconstruct
p21
(cnumpy
ndarray
p22
(I0
tS'b'
tRp23
(I1
(I2
tcnumpy
dtype
p24
(S'O8'
I0
I1
tRp25
(I3
S'|'
NNNI-1
I-1
I63
tbI00
(lp26
S'ms'
p27
aS'see'
p28
atbsS'name'
p29
NstRp30
ag17
(cpandas.indexes.range
RangeIndex
p31
(dp32
S'start'
p33
I0
sS'step'
p34
I1
sS'stop'
p35
I5
sg29
NstRp36
a(lp37
g21
(g22
(I0
tS'b'
tRp38
(I1
(I2
I5
tg24
(S'f8'
I0
I1
tRp39
(I3
S'<'
NNNI-1
I-1
I0
tbI00
S'\xe5\'#j\x9a\x19\xd3?>z\x03JL\x01\xd3?\x9b\xfb<\xacm\x08\xd3?\x1d=\xab*<\xf1\xd2?\xf9}"u|\xf8\xd2?\x16\x12\x9cf"\xb3[?V\x8e\xe1#_\xa2Z?\xdc\x04\xad\xe5{\x9e^?\xe5\xb29\xca\xbd=\\?\xba,X\xfb\xe6bb?'
tba(lp40
g17
(g18
(dp41
g20
g21
(g22
(I0
tS'b'
tRp42
(I1
(I2
tg25
I00
(lp43
g27
ag28
atbsg29
NstRp44
a(dp45
S'0.14.1'
p46
(dp47
S'axes'
p48
g16
sS'blocks'
p49
(lp50
(dp51
S'mgr_locs'
p52
c__builtin__
slice
p53
(I0
I2
I1
tRp54
sS'values'
p55
g38
sasstbsbag4
(g5
g6
NtRp56
(dp57
g9
g10
sg11
g12
sg13
g4
(g14
g6
NtRp58
((lp59
g17
(g18
(dp60
g20
g21
(g22
(I0
tS'b'
tRp61
(I1
(I2
tg25
I00
(lp62
S'msss'
p63
aS'msse'
p64
atbsg29
NstRp65
ag17
(g31
(dp66
g33
I0
sg34
I1
sg35
I5
sg29
NstRp67
a(lp68
g21
(g22
(I0
tS'b'
tRp69
(I1
(I2
I5
tg39
I00
S"j\xd18\xad\xfc\xcd\xf0??U\xf6\xc3\x97f\xf0?l\x8dz:{I\xf0?Q\x1d\xc4\xdf\xfd\x99\xf1?\x96#\xf1at\xcb\xf0?W\x83U\x00\xfb\x9b\x93?1\x83\xe8\xf9\xf80r?\x85\xba\x07\\'\xc5s?\xa9:\xeb\xaeUz\x8d?\xdc\xbef\xd5\xfc7\x9e?"
tba(lp70
g17
(g18
(dp71
g20
g21
(g22
(I0
tS'b'
tRp72
(I1
(I2
tg25
I00
(lp73
g63
ag64
atbsg29
NstRp74
a(dp75
g46
(dp76
g48
g59
sg49
(lp77
(dp78
g52
g53
(I0
I2
I1
tRp79
sg55
g69
sasstbsbag4
(g5
g6
NtRp80
(dp81
g9
g10
sg11
g12
sg13
g4
(g14
g6
NtRp82
((lp83
g17
(g18
(dp84
g20
g21
(g22
(I0
tS'b'
tRp85
(I1
(I2
tg25
I00
(lp86
S'msss'
p87
aS'msse'
p88
atbsg29
NstRp89
ag17
(g31
(dp90
g33
I0
sg34
I1
sg35
I5
sg29
NstRp91
a(lp92
g21
(g22
(I0
tS'b'
tRp93
(I1
(I2
I5
tg39
I00
S'\x86\xfdkN\xf7\x97\xf0?\\\xd6\xb9,+\xe8\xef?\xee\xf0-\xba=+\xf0?\xb4\xaf-|6X\xee?~\xe2NE\xb0h\xe8?*\xc7\xe5\xf2e\xce\xb4?\xa0\x93\x14D\xea\x7f\x99?\xc7Y\xdd\x90\x8f\xe8\x99?\xa9Z\xe8\x1dW\x1c\xb3?\x9a\xafEq\x82\x11\xbd?'
tba(lp94
g17
(g18
(dp95
g20
g21
(g22
(I0
tS'b'
tRp96
(I1
(I2
tg25
I00
(lp97
g87
ag88
atbsg29
NstRp98
a(dp99
g46
(dp100
g48
g83
sg49
(lp101
(dp102
g52
g53
(I0
I2
I1
tRp103
sg55
g93
sasstbsbasS'ngram'
p104
(lp105
g4
(g5
g6
NtRp106
(dp107
g9
g10
sg11
g12
sg13
g4
(g14
g6
NtRp108
((lp109
g17
(g18
(dp110
g20
g21
(g22
(I0
tS'b'
tRp111
(I1
(I2
tg25
I00
(lp112
S'ms'
p113
aS'see'
p114
atbsg29
NstRp115
ag17
(g31
(dp116
g33
I0
sg34
I1
sg35
I5
sg29
NstRp117
a(lp118
g21
(g22
(I0
tS'b'
tRp119
(I1
(I2
I5
tg39
I00
S'\xf0\xc4yh\x9d\xb7\xd5?\xff\xaf\xcah~y\xd4?d\xd1jI\xd2s\xd4?\x87\xc0\xf7\rmp\xd4?\xb1\x1e\xaeU2\x86\xd4?CR\xaf\x81\x1d\xc9\\?\x91\xe0\xfd\x013\x01Z?\x00\r\x1e\xff\x18\xaaY?\x95B\x8cX#\x90X?\xf6\x9e}\xddB\xa2Y?'
tba(lp120
g17
(g18
(dp121
g20
g21
(g22
(I0
tS'b'
tRp122
(I1
(I2
tg25
I00
(lp123
g113
ag114
atbsg29
NstRp124
a(dp125
g46
(dp126
g48
g109
sg49
(lp127
(dp128
g52
g53
(I0
I2
I1
tRp129
sg55
g119
sasstbsbag4
(g5
g6
NtRp130
(dp131
g9
g10
sg11
g12
sg13
g4
(g14
g6
NtRp132
((lp133
g17
(g18
(dp134
g20
g21
(g22
(I0
tS'b'
tRp135
(I1
(I2
tg25
I00
(lp136
S'msss'
p137
aS'msse'
p138
atbsg29
NstRp139
ag17
(g31
(dp140
g33
I0
sg34
I1
sg35
I5
sg29
NstRp141
a(lp142
g21
(g22
(I0
tS'b'
tRp143
(I1
(I2
I5
tg39
I00
S'fC\xecq\x87l\xf0?!\xfb\x1b\xb2\x0eo\xf0?\x8d\x1a\x94&z\x00\xf0?\xb2\xdcR\x19\x9ez\xf2?\xe2\xb4\xd1\x9a\xb5l\xf1?\xf3\xcc\x1dHJ$\x92?\xd0bu\xbb\xc8\x04u?o\x18\xa4\x91{mv?HwK\x05\xcaX\x8e?=^\xd36U\xa9\xa0?'
tba(lp144
g17
(g18
(dp145
g20
g21
(g22
(I0
tS'b'
tRp146
(I1
(I2
tg25
I00
(lp147
g137
ag138
atbsg29
NstRp148
a(dp149
g46
(dp150
g48
g133
sg49
(lp151
(dp152
g52
g53
(I0
I2
I1
tRp153
sg55
g143
sasstbsbag4
(g5
g6
NtRp154
(dp155
g9
g10
sg11
g12
sg13
g4
(g14
g6
NtRp156
((lp157
g17
(g18
(dp158
g20
g21
(g22
(I0
tS'b'
tRp159
(I1
(I2
tg25
I00
(lp160
S'msss'
p161
aS'msse'
p162
atbsg29
NstRp163
ag17
(g31
(dp164
g33
I0
sg34
I1
sg35
I5
sg29
NstRp165
a(lp166
g21
(g22
(I0
tS'b'
tRp167
(I1
(I2
I5
tg39
I00
S'\xb3\x80\xe02\x9c\x10\xf0?\x87d\x8e\xca\x8f\xea\xef?f8\xe0\xd9\xc0\x11\xf0?\xbd\xd1u\xfa}\x91\xef?P\x1d\x8ep\xb0\xb2\xee?\xd9d\x10\x8d\x1b>\x93?\xf36\xc10\x89Z\x83?,\xdd\xbc\xe6\x94\x06\x84?eb\xfb8\xea\x9c\x91?8\xb87\xb9<\x99\x98?'
tba(lp168
g17
(g18
(dp169
g20
g21
(g22
(I0
tS'b'
tRp170
(I1
(I2
tg25
I00
(lp171
g161
ag162
atbsg29
NstRp172
a(dp173
g46
(dp174
g48
g157
sg49
(lp175
(dp176
g52
g53
(I0
I2
I1
tRp177
sg55
g167
sasstbsbasS'fan'
p178
(lp179
g4
(g5
g6
NtRp180
(dp181
g9
g10
sg11
g12
sg13
g4
(g14
g6
NtRp182
((lp183
g17
(g18
(dp184
g20
g21
(g22
(I0
tS'b'
tRp185
(I1
(I2
tg25
I00
(lp186
S'ms'
p187
aS'see'
p188
atbsg29
NstRp189
ag17
(g31
(dp190
g33
I0
sg34
I1
sg35
I5
sg29
NstRp191
a(lp192
g21
(g22
(I0
tS'b'
tRp193
(I1
(I2
I5
tg39
I00
S'\x11\xb9\xdf\xfc\x07g\xd8?D|u\x1bz\x9b\xd5?M\x05g>e\xdc\xd4?\x11\x1b@\xe9\xbe\xbd\xd4?{\xe5\x08B\xa5\xba\xd4?\x0f\xdf\x1a\x89w\xb8a?\x8a \x8e\xdb>\x81b?\xa5\xd8\x14\x0f;T]?\x02\xb5;\x10\x86\xa3Z?\xe7!|\x95b\x7f\\?'
tba(lp194
g17
(g18
(dp195
g20
g21
(g22
(I0
tS'b'
tRp196
(I1
(I2
tg25
I00
(lp197
g187
ag188
atbsg29
NstRp198
a(dp199
g46
(dp200
g48
g183
sg49
(lp201
(dp202
g52
g53
(I0
I2
I1
tRp203
sg55
g193
sasstbsbag4
(g5
g6
NtRp204
(dp205
g9
g10
sg11
g12
sg13
g4
(g14
g6
NtRp206
((lp207
g17
(g18
(dp208
g20
g21
(g22
(I0
tS'b'
tRp209
(I1
(I2
tg25
I00
(lp210
S'msss'
p211
aS'msse'
p212
atbsg29
NstRp213
ag17
(g31
(dp214
g33
I0
sg34
I1
sg35
I5
sg29
NstRp215
a(lp216
g21
(g22
(I0
tS'b'
tRp217
(I1
(I2
I5
tg39
I00
S'#\xd4,IX\x04\xf0?\x8fi\x95MD\xd8\xf0?<\xfa\x16\xbbd\xa9\xed?\x89\xc1q\x9b\xbc+\xf3?&t\x02\x1a\xe4c\xf1?\rI\x16\x07\x98\x8f\x88?x\xf8\x12\xc7$\xbcz?|\xfe\xde9\xe5x~?T\xe3\xb9\xbd\x04Y\x82?$>\xdd\xf9\xa9O\x95?'
tba(lp218
g17
(g18
(dp219
g20
g21
(g22
(I0
tS'b'
tRp220
(I1
(I2
tg25
I00
(lp221
g211
ag212
atbsg29
NstRp222
a(dp223
g46
(dp224
g48
g207
sg49
(lp225
(dp226
g52
g53
(I0
I2
I1
tRp227
sg55
g217
sasstbsbag4
(g5
g6
NtRp228
(dp229
g9
g10
sg11
g12
sg13
g4
(g14
g6
NtRp230
((lp231
g17
(g18
(dp232
g20
g21
(g22
(I0
tS'b'
tRp233
(I1
(I2
tg25
I00
(lp234
S'msss'
p235
aS'msse'
p236
atbsg29
NstRp237
ag17
(g31
(dp238
g33
I0
sg34
I1
sg35
I5
sg29
NstRp239
a(lp240
g21
(g22
(I0
tS'b'
tRp241
(I1
(I2
I5
tg39
I00
S'\xb8P\x91\xceX\xb1\xee?\xa4n\xe0\xa8xQ\xf0?m\xdep\x93\x8e\x1c\xf2?[\x9f\xf3\xd6\xcf\x17\xe9?L~\xdeq\xc5\xde\xeb?\xdb\xa27\xc5L\x18\x98?\x13\xddry\xc6\xb8\x99??,\xf6\xe4U\xc1\x9b?w/x\x9fT*\x8c?\xc2\x17\xa2\xc8\xdeG\xa6?'
tba(lp242
g17
(g18
(dp243
g20
g21
(g22
(I0
tS'b'
tRp244
(I1
(I2
tg25
I00
(lp245
g235
ag236
atbsg29
NstRp246
a(dp247
g46
(dp248
g48
g231
sg49
(lp249
(dp250
g52
g53
(I0
I2
I1
tRp251
sg55
g241
sasstbsbasS'human'
p252
(lp253
g4
(g5
g6
NtRp254
(dp255
g9
g10
sg11
g12
sg13
g4
(g14
g6
NtRp256
((lp257
g17
(g18
(dp258
g20
g21
(g22
(I0
tS'b'
tRp259
(I1
(I2
tg25
I00
(lp260
S'ms'
p261
aS'see'
p262
atbsg29
NstRp263
ag17
(g31
(dp264
g33
I0
sg34
I1
sg35
I5
sg29
NstRp265
a(lp266
g21
(g22
(I0
tS'b'
tRp267
(I1
(I2
I5
tg39
I00
S'A\xa5\x82R\xe4\x90\xd6?S,\xb0\xeb+\xc9\xd4?\x8b\x9d\xd3\xf9\x1aG\xd4?\x98\x896\xce\x04\t\xd4?0_\x07c\xcd\xeb\xd3?y8\x81#\x99\x10b?\xeb3\xd8\x87\x17 b?\x02\xec}j\xe6\xa2b?\x04\xd1k\xa8\xa7\xecc?\x82\n8\xc8\x7f\xffc?'
tba(lp268
g17
(g18
(dp269
g20
g21
(g22
(I0
tS'b'
tRp270
(I1
(I2
tg25
I00
(lp271
g261
ag262
atbsg29
NstRp272
a(dp273
g46
(dp274
g48
g257
sg49
(lp275
(dp276
g52
g53
(I0
I2
I1
tRp277
sg55
g267
sasstbsbag4
(g5
g6
NtRp278
(dp279
g9
g10
sg11
g12
sg13
g4
(g14
g6
NtRp280
((lp281
g17
(g18
(dp282
g20
g21
(g22
(I0
tS'b'
tRp283
(I1
(I2
tg25
I00
(lp284
S'msss'
p285
aS'msse'
p286
atbsg29
NstRp287
ag17
(g31
(dp288
g33
I0
sg34
I1
sg35
I5
sg29
NstRp289
a(lp290
g21
(g22
(I0
tS'b'
tRp291
(I1
(I2
I5
tg39
I00
S"'\x89.L\xba\x83\xf0?.\x04\x90)\x9e\x9e\xf0?\xd1\xb8\xce\xa0#\x80\xed?\xb9\x1e\x95tj\xe8\xf2?\xe5\x08\xed\x8d\x11\xc3\xf1?&\xee\xd8\xe4T(\x84?\xd3\xe015W\xb7}?\xa9#\xa8\x16\x11\xecx?\xc4\xb4\xd5\xa7\xe0\xfe\x83?lu*\x19\x9b\x08\x8d?"
tba(lp292
g17
(g18
(dp293
g20
g21
(g22
(I0
tS'b'
tRp294
(I1
(I2
tg25
I00
(lp295
g285
ag286
atbsg29
NstRp296
a(dp297
g46
(dp298
g48
g281
sg49
(lp299
(dp300
g52
g53
(I0
I2
I1
tRp301
sg55
g291
sasstbsbag4
(g5
g6
NtRp302
(dp303
g9
g10
sg11
g12
sg13
g4
(g14
g6
NtRp304
((lp305
g17
(g18
(dp306
g20
g21
(g22
(I0
tS'b'
tRp307
(I1
(I2
tg25
I00
(lp308
S'msss'
p309
aS'msse'
p310
atbsg29
NstRp311
ag17
(g31
(dp312
g33
I0
sg34
I1
sg35
I5
sg29
NstRp313
a(lp314
g21
(g22
(I0
tS'b'
tRp315
(I1
(I2
I5
tg39
I00
S'\xb9I\xa7/\xcdl\xee?w(5\xd9y\x15\xef?`\x9de\xcf\xe2\xaf\xf3?\x02\xd3_\x10\x1d\xb2\xe6?\xb8\x99\xa14\x9fJ\xe9?y\xb3\x02\xfa\x19\xcb\x97?D\xde\xc5\xd4V\xdb\x91?z\x14V\x06r,\x96?\xcf\x84$J\x15\xc1\x92?\xefZ\x82\xeb5\xd5\x9c?'
tba(lp316
g17
(g18
(dp317
g20
g21
(g22
(I0
tS'b'
tRp318
(I1
(I2
tg25
I00
(lp319
g309
ag310
atbsg29
NstRp320
a(dp321
g46
(dp322
g48
g305
sg49
(lp323
(dp324
g52
g53
(I0
I2
I1
tRp325
sg55
g315
sasstbsbas.